target datalayout = "e-m:e-p270:32:32-p271:32:32-p272:64:64-i64:64-i128:128-f80:128-n8:16:32:64-S128"
target triple = "x86_64-pc-linux-gnu"

%"class.llvm::StringRef" = type { ptr, i64 }
%"class.llvm::SmallVectorBase" = type { ptr, i32, i32 }
%"class.clang::driver::InputInfo" = type { %union.anon.0, i32, ptr, i32, ptr }
%union.anon.0 = type { ptr }
%"class.llvm::SmallVector" = type { %"class.llvm::SmallVectorImpl", %"struct.llvm::SmallVectorStorage" }
%"class.llvm::SmallVectorImpl" = type { %"class.llvm::SmallVectorTemplateBase" }
%"class.llvm::SmallVectorTemplateBase" = type { %"class.llvm::SmallVectorTemplateCommon" }
%"class.llvm::SmallVectorTemplateCommon" = type { %"class.llvm::SmallVectorBase" }
%"struct.llvm::SmallVectorStorage" = type { [24 x i8] }
%"class.clang::driver::Action" = type { ptr, i32, i32, %"class.llvm::SmallVector", i8, i32, i32, ptr, ptr }

; Function Attrs: mustprogress nounwind uwtable
define linkonce_odr hidden noundef i64 @_ZNSt11char_traitsIcE6lengthEPKc(ptr noundef %0) #0 comdat align 2 {
  %2 = alloca ptr, align 8
  store ptr %0, ptr %2, align 8
  %3 = load ptr, ptr %2, align 8
  %4 = call i64 @strlen(ptr noundef %3) #8
  ret i64 %4
}

; Function Attrs: mustprogress nounwind uwtable
define linkonce_odr hidden noundef ptr @_ZNK4llvm25SmallVectorTemplateCommonIN5clang6driver9InputInfoEvE5beginEv(ptr noundef nonnull align 8 dereferenceable(16) %0) #0 comdat align 2 {
  %2 = alloca ptr, align 8
  store ptr %0, ptr %2, align 8
  %3 = load ptr, ptr %2, align 8
  %4 = getelementptr inbounds nuw %"class.llvm::SmallVectorBase", ptr %3, i32 0, i32 0
  %5 = load ptr, ptr %4, align 8
  ret ptr %5
}

; Function Attrs: mustprogress nounwind uwtable
define linkonce_odr hidden void @_ZN4llvm9StringRefC2EPKc(ptr noundef nonnull align 8 dereferenceable(16) %0, ptr noundef %1) unnamed_addr #0 comdat align 2 {
  %3 = alloca ptr, align 8
  %4 = alloca ptr, align 8
  store ptr %0, ptr %3, align 8
  store ptr %1, ptr %4, align 8
  %5 = load ptr, ptr %3, align 8
  %6 = getelementptr inbounds nuw %"class.llvm::StringRef", ptr %5, i32 0, i32 0
  %7 = load ptr, ptr %4, align 8
  store ptr %7, ptr %6, align 8
  %8 = getelementptr inbounds nuw %"class.llvm::StringRef", ptr %5, i32 0, i32 1
  %9 = load ptr, ptr %4, align 8
  %10 = icmp ne ptr %9, null
  br i1 %10, label %11, label %14

11:                                               ; preds = %2
  %12 = load ptr, ptr %4, align 8
  %13 = call noundef i64 @_ZNSt11char_traitsIcE6lengthEPKc(ptr noundef %12)
  br label %15

14:                                               ; preds = %2
  br label %15

15:                                               ; preds = %14, %11
  %16 = phi i64 [ %13, %11 ], [ 0, %14 ]
  store i64 %16, ptr %8, align 8
  ret void
}

; Function Attrs: mustprogress nounwind uwtable
define linkonce_odr hidden noundef ptr @_ZNK5clang6driver9InputInfo11getFilenameEv(ptr noundef nonnull align 8 dereferenceable(40) %0) #0 comdat align 2 {
  %2 = alloca ptr, align 8
  store ptr %0, ptr %2, align 8
  %3 = load ptr, ptr %2, align 8
  %4 = getelementptr inbounds nuw %"class.clang::driver::InputInfo", ptr %3, i32 0, i32 0
  %5 = load ptr, ptr %4, align 8
  ret ptr %5
}

; Function Attrs: mustprogress nounwind uwtable
define linkonce_odr hidden noundef i32 @_ZNK5clang6driver6Action7getTypeEv(ptr noundef nonnull align 8 dereferenceable(88) %0) #0 comdat align 2 {
  %2 = alloca ptr, align 8
  store ptr %0, ptr %2, align 8
  %3 = load ptr, ptr %2, align 8
  %4 = getelementptr inbounds nuw %"class.clang::driver::Action", ptr %3, i32 0, i32 2
  %5 = load i32, ptr %4, align 4
  ret i32 %5
}

; Function Attrs: mustprogress nounwind uwtable
define linkonce_odr hidden noundef i32 @_ZNK5clang6driver9InputInfo7getTypeEv(ptr noundef nonnull align 8 dereferenceable(40) %0) #0 comdat align 2 {
  %2 = alloca ptr, align 8
  store ptr %0, ptr %2, align 8
  %3 = load ptr, ptr %2, align 8
  %4 = getelementptr inbounds nuw %"class.clang::driver::InputInfo", ptr %3, i32 0, i32 3
  %5 = load i32, ptr %4, align 8
  ret i32 %5
}

; Function Attrs: mustprogress nounwind uwtable
define linkonce_odr hidden noundef nonnull align 8 dereferenceable(40) ptr @_ZNK4llvm25SmallVectorTemplateCommonIN5clang6driver9InputInfoEvEixEm(ptr noundef nonnull align 8 dereferenceable(16) %0, i64 noundef %1) #0 comdat align 2 {
  %3 = alloca ptr, align 8
  %4 = alloca i64, align 8
  store ptr %0, ptr %3, align 8
  store i64 %1, ptr %4, align 8
  %5 = load ptr, ptr %3, align 8
  %6 = call noundef ptr @_ZNK4llvm25SmallVectorTemplateCommonIN5clang6driver9InputInfoEvE5beginEv(ptr noundef nonnull align 8 dereferenceable(16) %5)
  %7 = load i64, ptr %4, align 8
  %8 = getelementptr inbounds %"class.clang::driver::InputInfo", ptr %6, i64 %7
  ret ptr %8
}

; Function Attrs: mustprogress nounwind uwtable
define hidden void @_ZNK5clang6driver5tools6HIPSPV6Linker12ConstructJobERNS0_11CompilationERKNS0_9JobActionERKNS0_9InputInfoERKN4llvm11SmallVectorIS9_Lj4EEERKNSC_3opt7ArgListEPKc(ptr noundef nonnull align 8 dereferenceable(32) %0, ptr noundef nonnull align 8 dereferenceable(523) %1, ptr noundef nonnull align 8 dereferenceable(88) %2, ptr noundef nonnull align 8 dereferenceable(40) %3, ptr noundef nonnull align 8 dereferenceable(176) %4, ptr noundef nonnull align 8 dereferenceable(176) %5, ptr noundef %6) unnamed_addr #0 align 2 {
  %8 = alloca ptr, align 8
  %9 = alloca ptr, align 8
  %10 = alloca ptr, align 8
  %11 = alloca ptr, align 8
  %12 = alloca ptr, align 8
  %13 = alloca ptr, align 8
  %14 = alloca ptr, align 8
  %15 = alloca %"class.llvm::StringRef", align 8
  store ptr %0, ptr %8, align 8
  store ptr %1, ptr %9, align 8
  store ptr %2, ptr %10, align 8
  store ptr %3, ptr %11, align 8
  store ptr %4, ptr %12, align 8
  store ptr %5, ptr %13, align 8
  store ptr %6, ptr %14, align 8
  %16 = load ptr, ptr %8, align 8
  %17 = load ptr, ptr %12, align 8
  %18 = call noundef i64 @_ZNK4llvm15SmallVectorBaseIjE4sizeEv(ptr noundef nonnull align 8 dereferenceable(16) %17)
  %19 = icmp ugt i64 %18, 0
  br i1 %19, label %20, label %35

20:                                               ; preds = %7
  %21 = load ptr, ptr %12, align 8
  %22 = call noundef nonnull align 8 dereferenceable(40) ptr @_ZNK4llvm25SmallVectorTemplateCommonIN5clang6driver9InputInfoEvEixEm(ptr noundef nonnull align 8 dereferenceable(16) %21, i64 noundef 0)
  %23 = call noundef i32 @_ZNK5clang6driver9InputInfo7getTypeEv(ptr noundef nonnull align 8 dereferenceable(40) %22)
  %24 = icmp eq i32 %23, 61
  br i1 %24, label %25, label %35

25:                                               ; preds = %20
  %26 = load ptr, ptr %10, align 8
  %27 = call noundef i32 @_ZNK5clang6driver6Action7getTypeEv(ptr noundef nonnull align 8 dereferenceable(88) %26)
  %28 = icmp eq i32 %27, 59
  br i1 %28, label %29, label %35

29:                                               ; preds = %25
  %30 = load ptr, ptr %9, align 8
  %31 = load ptr, ptr %11, align 8
  %32 = load ptr, ptr %12, align 8
  %33 = load ptr, ptr %13, align 8
  %34 = load ptr, ptr %10, align 8
  call void @_ZN5clang6driver5tools3HIP40constructGenerateObjFileFromHIPFatBinaryERNS0_11CompilationERKNS0_9InputInfoERKN4llvm11SmallVectorIS5_Lj4EEERKNS8_3opt7ArgListERKNS0_9JobActionERKNS0_4ToolE(ptr noundef nonnull align 8 dereferenceable(523) %30, ptr noundef nonnull align 8 dereferenceable(40) %31, ptr noundef nonnull align 8 dereferenceable(176) %32, ptr noundef nonnull align 8 dereferenceable(176) %33, ptr noundef nonnull align 8 dereferenceable(88) %34, ptr noundef nonnull align 8 dereferenceable(32) %16)
  br label %56

35:                                               ; preds = %25, %20, %7
  %36 = load ptr, ptr %10, align 8
  %37 = call noundef i32 @_ZNK5clang6driver6Action7getTypeEv(ptr noundef nonnull align 8 dereferenceable(88) %36)
  %38 = icmp eq i32 %37, 65
  br i1 %38, label %39, label %50

39:                                               ; preds = %35
  %40 = load ptr, ptr %9, align 8
  %41 = load ptr, ptr %10, align 8
  %42 = load ptr, ptr %11, align 8
  %43 = call noundef ptr @_ZNK5clang6driver9InputInfo11getFilenameEv(ptr noundef nonnull align 8 dereferenceable(40) %42)
  call void @_ZN4llvm9StringRefC2EPKc(ptr noundef nonnull align 8 dereferenceable(16) %15, ptr noundef %43)
  %44 = load ptr, ptr %12, align 8
  %45 = load ptr, ptr %13, align 8
  %46 = getelementptr inbounds nuw { ptr, i64 }, ptr %15, i32 0, i32 0
  %47 = load ptr, ptr %46, align 8
  %48 = getelementptr inbounds nuw { ptr, i64 }, ptr %15, i32 0, i32 1
  %49 = load i64, ptr %48, align 8
  call void @_ZN5clang6driver5tools3HIP25constructHIPFatbinCommandERNS0_11CompilationERKNS0_9JobActionEN4llvm9StringRefERKNS8_11SmallVectorINS0_9InputInfoELj4EEERKNS8_3opt7ArgListERKNS0_4ToolE(ptr noundef nonnull align 8 dereferenceable(523) %40, ptr noundef nonnull align 8 dereferenceable(88) %41, ptr %47, i64 %49, ptr noundef nonnull align 8 dereferenceable(176) %44, ptr noundef nonnull align 8 dereferenceable(176) %45, ptr noundef nonnull align 8 dereferenceable(32) %16)
  br label %56

50:                                               ; preds = %35
  %51 = load ptr, ptr %9, align 8
  %52 = load ptr, ptr %10, align 8
  %53 = load ptr, ptr %12, align 8
  %54 = load ptr, ptr %11, align 8
  %55 = load ptr, ptr %13, align 8
  call void @_ZNK5clang6driver5tools6HIPSPV6Linker32constructLinkAndEmitSpirvCommandERNS0_11CompilationERKNS0_9JobActionERKN4llvm11SmallVectorINS0_9InputInfoELj4EEERKSB_RKNS9_3opt7ArgListE(ptr noundef nonnull align 8 dereferenceable(32) %16, ptr noundef nonnull align 8 dereferenceable(523) %51, ptr noundef nonnull align 8 dereferenceable(88) %52, ptr noundef nonnull align 8 dereferenceable(176) %53, ptr noundef nonnull align 8 dereferenceable(40) %54, ptr noundef nonnull align 8 dereferenceable(176) %55)
  br label %56

56:                                               ; preds = %50, %39, %29
  ret void
}