; Function Attrs: mustprogress nounwind uwtable
define hidden void @_ZNK5clang6driver5tools6HIPSPV6Linker12ConstructJobERNS0_11CompilationERKNS0_9JobActionERKNS0_9InputInfoERKN4llvm11SmallVectorIS9_Lj4EEERKNSC_3opt7ArgListEPKc(ptr noundef nonnull align 8 dereferenceable(32) %0, ptr noundef nonnull align 8 dereferenceable(523) %1, ptr noundef nonnull align 8 dereferenceable(88) %2, ptr noundef nonnull align 8 dereferenceable(40) %3, ptr noundef nonnull align 8 dereferenceable(176) %4, ptr noundef nonnull align 8 dereferenceable(176) %5, ptr nocapture readnone %6) unnamed_addr #0 align 2 {
  %8 = tail call noundef i64 @_ZNK4llvm15SmallVectorBaseIjE4sizeEv(ptr noundef nonnull align 8 dereferenceable(16) %4) #12
  %.not = icmp eq i64 %8, 0
  br i1 %.not, label %._crit_edge, label %9

._crit_edge:                                      ; preds = %7
  %.phi.trans.insert = getelementptr inbounds nuw i8, ptr %2, i64 12
  %.pre = load i32, ptr %.phi.trans.insert, align 4
  br label %18

9:                                                ; preds = %7
  %10 = load ptr, ptr %4, align 8
  %11 = getelementptr inbounds nuw i8, ptr %10, i64 24
  %12 = load i32, ptr %11, align 8
  %13 = icmp eq i32 %12, 61
  %14 = getelementptr inbounds nuw i8, ptr %2, i64 12
  %15 = load i32, ptr %14, align 4
  %16 = icmp eq i32 %15, 59
  %or.cond = select i1 %13, i1 %16, i1 false
  br i1 %or.cond, label %17, label %18

17:                                               ; preds = %9
  tail call void @_ZN5clang6driver5tools3HIP40constructGenerateObjFileFromHIPFatBinaryERNS0_11CompilationERKNS0_9InputInfoERKN4llvm11SmallVectorIS5_Lj4EEERKNS8_3opt7ArgListERKNS0_9JobActionERKNS0_4ToolE(ptr noundef nonnull align 8 dereferenceable(523) %1, ptr noundef nonnull align 8 dereferenceable(40) %3, ptr noundef nonnull align 8 dereferenceable(176) %4, ptr noundef nonnull align 8 dereferenceable(176) %5, ptr noundef nonnull align 8 dereferenceable(88) %2, ptr noundef nonnull align 8 dereferenceable(32) %0) #12
  br label %27

18:                                               ; preds = %._crit_edge, %9
  %19 = phi i32 [ %.pre, %._crit_edge ], [ %15, %9 ]
  %20 = icmp eq i32 %19, 65
  br i1 %20, label %21, label %26

21:                                               ; preds = %18
  %22 = load ptr, ptr %3, align 8
  %.not.i = icmp eq ptr %22, null
  br i1 %.not.i, label %_ZN4llvm9StringRefC2EPKc.exit, label %23

23:                                               ; preds = %21
  %24 = tail call noundef i64 @strlen(ptr noundef nonnull dereferenceable(1) %22) #12
  br label %_ZN4llvm9StringRefC2EPKc.exit

_ZN4llvm9StringRefC2EPKc.exit:                    ; preds = %21, %23
  %25 = phi i64 [ %24, %23 ], [ 0, %21 ]
  tail call void @_ZN5clang6driver5tools3HIP25constructHIPFatbinCommandERNS0_11CompilationERKNS0_9JobActionEN4llvm9StringRefERKNS8_11SmallVectorINS0_9InputInfoELj4EEERKNS8_3opt7ArgListERKNS0_4ToolE(ptr noundef nonnull align 8 dereferenceable(523) %1, ptr noundef nonnull align 8 dereferenceable(88) %2, ptr %22, i64 %25, ptr noundef nonnull align 8 dereferenceable(176) %4, ptr noundef nonnull align 8 dereferenceable(176) %5, ptr noundef nonnull align 8 dereferenceable(32) %0) #12
  br label %27

26:                                               ; preds = %18
  tail call void @_ZNK5clang6driver5tools6HIPSPV6Linker32constructLinkAndEmitSpirvCommandERNS0_11CompilationERKNS0_9JobActionERKN4llvm11SmallVectorINS0_9InputInfoELj4EEERKSB_RKNS9_3opt7ArgListE(ptr noundef nonnull align 8 dereferenceable(32) %0, ptr noundef nonnull align 8 dereferenceable(523) %1, ptr noundef nonnull align 8 dereferenceable(88) %2, ptr noundef nonnull align 8 dereferenceable(176) %4, ptr noundef nonnull align 8 dereferenceable(40) %3, ptr noundef nonnull align 8 dereferenceable(176) %5)
  br label %27

27:                                               ; preds = %26, %_ZN4llvm9StringRefC2EPKc.exit, %17
  ret void
}